target datalayout = "e-m:e-p270:32:32-p271:32:32-p272:64:64-i64:64-i128:128-f80:128-n8:16:32:64-S128"
target triple = "x86_64-pc-linux-gnu"

@.str.1 = private unnamed_addr constant [15 x i8] c"parse_coerce.c\00", align 1
@.str.2 = private unnamed_addr constant [44 x i8] c"argument of %s must be type %s, not type %s\00", align 1
@.str.4 = private unnamed_addr constant [37 x i8] c"argument of %s must not return a set\00", align 1
@__func__.coerce_to_specific_type_typmod = private unnamed_addr constant [31 x i8] c"coerce_to_specific_type_typmod\00", align 1

; Function Attrs: nounwind uwtable
define dso_local ptr @coerce_to_specific_type_typmod(ptr noundef %0, ptr noundef %1, i32 noundef %2, i32 noundef %3, ptr noundef %4) #0 {
  %6 = alloca ptr, align 8
  %7 = alloca ptr, align 8
  %8 = alloca i32, align 4
  %9 = alloca i32, align 4
  %10 = alloca ptr, align 8
  %11 = alloca i32, align 4
  %12 = alloca ptr, align 8
  store ptr %0, ptr %6, align 8
  store ptr %1, ptr %7, align 8
  store i32 %2, ptr %8, align 4
  store i32 %3, ptr %9, align 4
  store ptr %4, ptr %10, align 8
  call void @llvm.lifetime.start.p0(i64 4, ptr %11) #6
  %13 = load ptr, ptr %7, align 8
  %14 = call i32 @exprType(ptr noundef %13)
  store i32 %14, ptr %11, align 4
  %15 = load i32, ptr %11, align 4
  %16 = load i32, ptr %8, align 4
  %17 = icmp ne i32 %15, %16
  br i1 %17, label %18, label %50

18:                                               ; preds = %5
  call void @llvm.lifetime.start.p0(i64 8, ptr %12) #6
  %19 = load ptr, ptr %6, align 8
  %20 = load ptr, ptr %7, align 8
  %21 = load i32, ptr %11, align 4
  %22 = load i32, ptr %8, align 4
  %23 = load i32, ptr %9, align 4
  %24 = call ptr @coerce_to_target_type(ptr noundef %19, ptr noundef %20, i32 noundef %21, i32 noundef %22, i32 noundef %23, i32 noundef 1, i32 noundef 2, i32 noundef -1)
  store ptr %24, ptr %12, align 8
  %25 = load ptr, ptr %12, align 8
  %26 = icmp eq ptr %25, null
  br i1 %26, label %27, label %48

27:                                               ; preds = %18
  br label %28

28:                                               ; preds = %27
  br i1 true, label %29, label %31

29:                                               ; preds = %28
  %30 = call zeroext i1 @errstart_cold(i32 noundef 21, ptr noundef null) #7
  br i1 %30, label %33, label %45

31:                                               ; preds = %28
  %32 = call zeroext i1 @errstart(i32 noundef 21, ptr noundef null)
  br i1 %32, label %33, label %45

33:                                               ; preds = %31, %29
  %34 = call i32 @errcode(i32 noundef 67141764)
  %35 = load ptr, ptr %10, align 8
  %36 = load i32, ptr %8, align 4
  %37 = call ptr @format_type_be(i32 noundef %36)
  %38 = load i32, ptr %11, align 4
  %39 = call ptr @format_type_be(i32 noundef %38)
  %40 = call i32 (ptr, ...) @errmsg(ptr noundef @.str.2, ptr noundef %35, ptr noundef %37, ptr noundef %39)
  %41 = load ptr, ptr %6, align 8
  %42 = load ptr, ptr %7, align 8
  %43 = call i32 @exprLocation(ptr noundef %42)
  %44 = call i32 @parser_errposition(ptr noundef %41, i32 noundef %43)
  call void @errfinish(ptr noundef @.str.1, i32 noundef 1229, ptr noundef @__func__.coerce_to_specific_type_typmod)
  br label %45

45:                                               ; preds = %33, %31, %29
  unreachable

46:                                               ; No predecessors!
  br label %47

47:                                               ; preds = %46
  br label %48

48:                                               ; preds = %47, %18
  %49 = load ptr, ptr %12, align 8
  store ptr %49, ptr %7, align 8
  call void @llvm.lifetime.end.p0(i64 8, ptr %12) #6
  br label %50

50:                                               ; preds = %48, %5
  %51 = load ptr, ptr %7, align 8
  %52 = call zeroext i1 @expression_returns_set(ptr noundef %51)
  br i1 %52, label %53, label %70

53:                                               ; preds = %50
  br label %54

54:                                               ; preds = %53
  br i1 true, label %55, label %57

55:                                               ; preds = %54
  %56 = call zeroext i1 @errstart_cold(i32 noundef 21, ptr noundef null) #7
  br i1 %56, label %59, label %67

57:                                               ; preds = %54
  %58 = call zeroext i1 @errstart(i32 noundef 21, ptr noundef null)
  br i1 %58, label %59, label %67

59:                                               ; preds = %57, %55
  %60 = call i32 @errcode(i32 noundef 67141764)
  %61 = load ptr, ptr %10, align 8
  %62 = call i32 (ptr, ...) @errmsg(ptr noundef @.str.4, ptr noundef %61)
  %63 = load ptr, ptr %6, align 8
  %64 = load ptr, ptr %7, align 8
  %65 = call i32 @exprLocation(ptr noundef %64)
  %66 = call i32 @parser_errposition(ptr noundef %63, i32 noundef %65)
  call void @errfinish(ptr noundef @.str.1, i32 noundef 1239, ptr noundef @__func__.coerce_to_specific_type_typmod)
  br label %67

67:                                               ; preds = %59, %57, %55
  unreachable

68:                                               ; No predecessors!
  br label %69

69:                                               ; preds = %68
  br label %70

70:                                               ; preds = %69, %50
  %71 = load ptr, ptr %7, align 8
  call void @llvm.lifetime.end.p0(i64 4, ptr %11) #6
  ret ptr %71
}