; Function Attrs: nounwind uwtable
define dso_local noundef ptr @coerce_to_specific_type_typmod(ptr noundef %0, ptr noundef %1, i32 noundef %2, i32 noundef %3, ptr noundef %4) local_unnamed_addr #0 {
  %6 = tail call i32 @exprType(ptr noundef %1) #5
  %.not = icmp eq i32 %6, %2
  br i1 %.not, label %18, label %7

7:                                                ; preds = %5
  %8 = tail call ptr @coerce_to_target_type(ptr noundef %0, ptr noundef %1, i32 noundef %6, i32 noundef %2, i32 noundef %3, i32 noundef 1, i32 noundef 2, i32 noundef -1)
  %9 = icmp eq ptr %8, null
  br i1 %9, label %10, label %18

10:                                               ; preds = %7
  %11 = tail call zeroext i1 @errstart_cold(i32 noundef 21, ptr noundef null) #6
  tail call void @llvm.assume(i1 %11)
  %12 = tail call i32 @errcode(i32 noundef 67141764) #5
  %13 = tail call ptr @format_type_be(i32 noundef %2) #5
  %14 = tail call ptr @format_type_be(i32 noundef %6) #5
  %15 = tail call i32 (ptr, ...) @errmsg(ptr noundef nonnull @.str.2, ptr noundef %4, ptr noundef %13, ptr noundef %14) #5
  %16 = tail call i32 @exprLocation(ptr noundef %1) #5
  %17 = tail call i32 @parser_errposition(ptr noundef %0, i32 noundef %16) #5
  tail call void @errfinish(ptr noundef nonnull @.str.1, i32 noundef 1229, ptr noundef nonnull @__func__.coerce_to_specific_type_typmod) #5
  unreachable

18:                                               ; preds = %7, %5
  %.0 = phi ptr [ %1, %5 ], [ %8, %7 ]
  %19 = tail call zeroext i1 @expression_returns_set(ptr noundef %.0) #5
  br i1 %19, label %20, label %26

20:                                               ; preds = %18
  %21 = tail call zeroext i1 @errstart_cold(i32 noundef 21, ptr noundef null) #6
  tail call void @llvm.assume(i1 %21)
  %22 = tail call i32 @errcode(i32 noundef 67141764) #5
  %23 = tail call i32 (ptr, ...) @errmsg(ptr noundef nonnull @.str.4, ptr noundef %4) #5
  %24 = tail call i32 @exprLocation(ptr noundef %.0) #5
  %25 = tail call i32 @parser_errposition(ptr noundef %0, i32 noundef %24) #5
  tail call void @errfinish(ptr noundef nonnull @.str.1, i32 noundef 1239, ptr noundef nonnull @__func__.coerce_to_specific_type_typmod) #5
  unreachable

26:                                               ; preds = %18
  ret ptr %.0
}